target datalayout = "e-m:e-p270:32:32-p271:32:32-p272:64:64-i64:64-i128:128-f80:128-n8:16:32:64-S128"
target triple = "x86_64-pc-linux-gnu"

%"class.lean::object_ref" = type { ptr }
%"class.lean::expr" = type { %"class.lean::object_ref" }
%struct.lean_object = type { i32, i32 }
%"struct.std::pair" = type { %"struct.lean::(anonymous namespace)::cache_key", %"class.lean::expr" }
%"struct.lean::(anonymous namespace)::cache_key" = type <{ %"class.lean::expr", i8, [7 x i8] }>

; Function Attrs: alwaysinline mustprogress uwtable
define internal void @_ZL12lean_dec_refP11lean_object(ptr noundef %0) #6 {
  %2 = alloca ptr, align 8
  store ptr %0, ptr %2, align 8, !tbaa !12
  %3 = load ptr, ptr %2, align 8, !tbaa !12
  %4 = getelementptr inbounds nuw %struct.lean_object, ptr %3, i32 0, i32 0
  %5 = load i32, ptr %4, align 4, !tbaa !55
  %6 = icmp sgt i32 %5, 1
  %7 = zext i1 %6 to i64
  %8 = call i64 @llvm.expect.i64(i64 %7, i64 1)
  %9 = icmp ne i64 %8, 0
  br i1 %9, label %10, label %15

10:                                               ; preds = %1
  %11 = load ptr, ptr %2, align 8, !tbaa !12
  %12 = getelementptr inbounds nuw %struct.lean_object, ptr %11, i32 0, i32 0
  %13 = load i32, ptr %12, align 4, !tbaa !55
  %14 = add nsw i32 %13, -1
  store i32 %14, ptr %12, align 4, !tbaa !55
  br label %23

15:                                               ; preds = %1
  %16 = load ptr, ptr %2, align 8, !tbaa !12
  %17 = getelementptr inbounds nuw %struct.lean_object, ptr %16, i32 0, i32 0
  %18 = load i32, ptr %17, align 4, !tbaa !55
  %19 = icmp ne i32 %18, 0
  br i1 %19, label %20, label %22

20:                                               ; preds = %15
  %21 = load ptr, ptr %2, align 8, !tbaa !12
  call void @lean_dec_ref_cold(ptr noundef %21)
  br label %22

22:                                               ; preds = %20, %15
  br label %23

23:                                               ; preds = %22, %10
  ret void
}

; Function Attrs: alwaysinline mustprogress nounwind uwtable
define internal noundef zeroext i1 @_ZL14lean_is_scalarP11lean_object(ptr noundef %0) #7 {
  %2 = alloca ptr, align 8
  store ptr %0, ptr %2, align 8, !tbaa !12
  %3 = load ptr, ptr %2, align 8, !tbaa !12
  %4 = ptrtoint ptr %3 to i64
  %5 = and i64 %4, 1
  %6 = icmp eq i64 %5, 1
  ret i1 %6
}

; Function Attrs: alwaysinline mustprogress uwtable
define internal void @_ZL8lean_decP11lean_object(ptr noundef %0) #6 {
  %2 = alloca ptr, align 8
  store ptr %0, ptr %2, align 8, !tbaa !12
  %3 = load ptr, ptr %2, align 8, !tbaa !12
  %4 = call noundef zeroext i1 @_ZL14lean_is_scalarP11lean_object(ptr noundef %3)
  br i1 %4, label %7, label %5

5:                                                ; preds = %1
  %6 = load ptr, ptr %2, align 8, !tbaa !12
  call void @_ZL12lean_dec_refP11lean_object(ptr noundef %6)
  br label %7

7:                                                ; preds = %5, %1
  ret void
}

; Function Attrs: inlinehint mustprogress uwtable
define linkonce_odr hidden void @_ZN4lean3decEP11lean_object(ptr noundef %0) #5 comdat {
  %2 = alloca ptr, align 8
  store ptr %0, ptr %2, align 8, !tbaa !12
  %3 = load ptr, ptr %2, align 8, !tbaa !12
  call void @_ZL8lean_decP11lean_object(ptr noundef %3)
  ret void
}

; Function Attrs: inlinehint mustprogress nounwind uwtable
define internal void @_ZN4lean12_GLOBAL__N_19cache_keyD2Ev(ptr noundef nonnull align 8 dereferenceable(9) %0) unnamed_addr #3 align 2 {
  %2 = alloca ptr, align 8
  store ptr %0, ptr %2, align 8, !tbaa !90
  %3 = load ptr, ptr %2, align 8
  %4 = getelementptr inbounds nuw %"struct.lean::(anonymous namespace)::cache_key", ptr %3, i32 0, i32 0
  call void @_ZN4lean10object_refD2Ev(ptr noundef nonnull align 8 dereferenceable(8) %4) #15
  ret void
}

; Function Attrs: mustprogress nounwind uwtable
define linkonce_odr hidden void @_ZN4lean10object_refD2Ev(ptr noundef nonnull align 8 dereferenceable(8) %0) unnamed_addr #4 comdat align 2 personality ptr @__gxx_personality_v0 {
  %2 = alloca ptr, align 8
  store ptr %0, ptr %2, align 8, !tbaa !8
  %3 = load ptr, ptr %2, align 8
  %4 = getelementptr inbounds nuw %"class.lean::object_ref", ptr %3, i32 0, i32 0
  %5 = load ptr, ptr %4, align 8, !tbaa !10
  invoke void @_ZN4lean3decEP11lean_object(ptr noundef %5)
          to label %6 unwind label %7

6:                                                ; preds = %1
  ret void

7:                                                ; preds = %1
  %8 = landingpad { ptr, i32 }
          catch ptr null
  %9 = extractvalue { ptr, i32 } %8, 0
  call void @__clang_call_terminate(ptr %9) #16
  unreachable
}

; Function Attrs: inlinehint mustprogress nounwind uwtable
define internal void @_ZNSt4pairIN4lean12_GLOBAL__N_19cache_keyENS0_4exprEED2Ev(ptr noundef nonnull align 8 dereferenceable(24) %0) unnamed_addr #3 align 2 {
  %2 = alloca ptr, align 8
  store ptr %0, ptr %2, align 8, !tbaa !88
  %3 = load ptr, ptr %2, align 8
  %4 = getelementptr inbounds nuw %"struct.std::pair", ptr %3, i32 0, i32 1
  call void @_ZN4lean10object_refD2Ev(ptr noundef nonnull align 8 dereferenceable(8) %4) #15
  %5 = getelementptr inbounds nuw %"struct.std::pair", ptr %3, i32 0, i32 0
  call void @_ZN4lean12_GLOBAL__N_19cache_keyD2Ev(ptr noundef nonnull align 8 dereferenceable(9) %5) #15
  ret void
}