; Function Attrs: inlinehint mustprogress nounwind uwtable
define internal fastcc void @_ZNSt4pairIN4lean12_GLOBAL__N_19cache_keyENS0_4exprEED2Ev(ptr noundef nonnull readonly align 8 captures(none) dereferenceable(24) %0) unnamed_addr #3 align 2 personality ptr @__gxx_personality_v0 {
  %2 = getelementptr inbounds nuw i8, ptr %0, i64 16
  %3 = load ptr, ptr %2, align 8, !tbaa !3
  %4 = ptrtoint ptr %3 to i64
  %5 = and i64 %4, 1
  %.not.i.i = icmp eq i64 %5, 0
  br i1 %.not.i.i, label %6, label %_ZN4lean10object_refD2Ev.exit

6:                                                ; preds = %1
  %7 = load i32, ptr %3, align 4, !tbaa !8
  %8 = icmp sgt i32 %7, 1
  br i1 %8, label %9, label %11, !prof !11

9:                                                ; preds = %6
  %10 = add nsw i32 %7, -1
  store i32 %10, ptr %3, align 4, !tbaa !8
  br label %_ZN4lean10object_refD2Ev.exit

11:                                               ; preds = %6
  %.not.i.i.i = icmp eq i32 %7, 0
  br i1 %.not.i.i.i, label %_ZN4lean10object_refD2Ev.exit, label %12

12:                                               ; preds = %11
  invoke void @lean_dec_ref_cold(ptr noundef nonnull %3)
          to label %_ZN4lean10object_refD2Ev.exit unwind label %13

13:                                               ; preds = %12
  %14 = landingpad { ptr, i32 }
          catch ptr null
  %15 = extractvalue { ptr, i32 } %14, 0
  tail call void @__clang_call_terminate(ptr %15) #18
  unreachable

_ZN4lean10object_refD2Ev.exit:                    ; preds = %1, %9, %11, %12
  %.val = load ptr, ptr %0, align 8, !tbaa !3
  %16 = ptrtoint ptr %.val to i64
  %17 = and i64 %16, 1
  %.not.i.i.i1 = icmp eq i64 %17, 0
  br i1 %.not.i.i.i1, label %18, label %_ZN4lean12_GLOBAL__N_19cache_keyD2Ev.exit

18:                                               ; preds = %_ZN4lean10object_refD2Ev.exit
  %19 = load i32, ptr %.val, align 4, !tbaa !8
  %20 = icmp sgt i32 %19, 1
  br i1 %20, label %21, label %23, !prof !11

21:                                               ; preds = %18
  %22 = add nsw i32 %19, -1
  store i32 %22, ptr %.val, align 4, !tbaa !8
  br label %_ZN4lean12_GLOBAL__N_19cache_keyD2Ev.exit

23:                                               ; preds = %18
  %.not.i.i.i.i = icmp eq i32 %19, 0
  br i1 %.not.i.i.i.i, label %_ZN4lean12_GLOBAL__N_19cache_keyD2Ev.exit, label %24

24:                                               ; preds = %23
  invoke void @lean_dec_ref_cold(ptr noundef nonnull %.val)
          to label %_ZN4lean12_GLOBAL__N_19cache_keyD2Ev.exit unwind label %25

25:                                               ; preds = %24
  %26 = landingpad { ptr, i32 }
          catch ptr null
  %27 = extractvalue { ptr, i32 } %26, 0
  tail call void @__clang_call_terminate(ptr %27) #18
  unreachable

_ZN4lean12_GLOBAL__N_19cache_keyD2Ev.exit:        ; preds = %_ZN4lean10object_refD2Ev.exit, %21, %23, %24
  ret void
}